	.file	"stack_internal.c"
	.text
.Ltext0:
	.globl	empty
	.type	empty, @function
empty:
.LFB0:
	.file 1 "tests/stack_internal.c"
	.loc 1 2 0
	.cfi_startproc
	pushl	%ebp
.LCFI0:
	.cfi_def_cfa_offset 8
	.cfi_offset 5, -8
	movl	%esp, %ebp
.LCFI1:
	.cfi_def_cfa_register 5
	.loc 1 3 0
	popl	%ebp
.LCFI2:
	.cfi_restore 5
	.cfi_def_cfa 4, 4
	ret
	.cfi_endproc
.LFE0:
	.size	empty, .-empty
	.globl	main
	.type	main, @function
main:
.LFB1:
	.loc 1 5 0
	.cfi_startproc
	pushl	%ebp
.LCFI3:
	.cfi_def_cfa_offset 8
	.cfi_offset 5, -8
	movl	%esp, %ebp
.LCFI4:
	.cfi_def_cfa_register 5
	.loc 1 6 0
	call	empty
	.loc 1 7 0
	movl	$0, %eax
	.loc 1 8 0
	popl	%ebp
.LCFI5:
	.cfi_restore 5
	.cfi_def_cfa 4, 4
	ret
	.cfi_endproc
.LFE1:
	.size	main, .-main
.Letext0:
	.section	.note.GNU-stack,"",@progbits
